target datalayout = "e-m:e-p270:32:32-p271:32:32-p272:64:64-i64:64-i128:128-f80:128-n8:16:32:64-S128"
target triple = "x86_64-pc-linux-gnu"

%struct._value_string = type { i32, ptr }
%struct.expert_field = type { i32, i32 }
%struct.ssh_bignum = type { ptr, i32 }
%struct._packet_info = type { ptr, ptr, i32, i32, %struct.nstime_t, %struct.nstime_t, %struct.nstime_t, i32, ptr, ptr, ptr, ptr, %struct._address, %struct._address, %struct._address, %struct._address, %struct._address, %struct._address, i32, ptr, i32, %struct.anon, i32, i32, i32, i32, ptr, i32, ptr, ptr, i16, i16, i32, i32, i16, i32, i32, ptr, ptr, ptr, i8, i8, i16, i16, i16, i32, i16, i16, ptr, ptr, ptr, ptr, ptr, i32 }
%struct.nstime_t = type { i64, i32 }
%struct._address = type { i32, i32, ptr, ptr }
%struct.anon = type { i8, [3 x i8] }
%struct.ssh_flow_data = type { i32, ptr, ptr, [2 x %struct.ssh_peer_data], ptr, i32, ptr, ptr, ptr, ptr, ptr, ptr, ptr, ptr, ptr, ptr, ptr, ptr, ptr, ptr, i32, i32, [6 x %struct.ssh_bignum] }
%struct.ssh_peer_data = type { i32, i32, i32, i32, i32, i32, ptr, [2 x ptr], ptr, i32, [2 x ptr], ptr, [2 x ptr], ptr, i32, i32, i32, ptr, ptr, i32, i32, i32, i32, i32, i32, i32, i32, i32, i32, i32, ptr, [12 x i8], [48 x i8], i32, ptr, ptr, ptr }

@hf_ssh2_kex_dh_msg_code = internal global i32 0, align 4
@ssh2_kex_dh_msg_vals = internal constant [3 x %struct._value_string] [%struct._value_string { i32 30, ptr @.str.387 }, %struct._value_string { i32 31, ptr @.str.388 }, %struct._value_string zeroinitializer], align 16
@hf_ssh_dh_e = internal global i32 0, align 4
@hf_ssh_dh_f = internal global i32 0, align 4
@hf_ssh_mpint_length = internal global i32 0, align 4
@ett_key_exchange_host_key = internal global i32 0, align 4
@ett_key_exchange_host_sig = internal global i32 0, align 4
@ei_ssh_invalid_keylen = internal global %struct.expert_field zeroinitializer, align 4
@.str.411 = private unnamed_addr constant [13 x i8] c"Unknown (%u)\00", align 1
@.str.412 = private unnamed_addr constant [23 x i8] c"Invalid key length: %u\00", align 1
@.str.413 = private unnamed_addr constant [48 x i8] c"%s->sequence_number{SSH_MSG_KEXDH_INIT}++ > %d\0A\00", align 1
@.str.414 = private unnamed_addr constant [7 x i8] c"client\00", align 1
@.str.415 = private unnamed_addr constant [13 x i8] c"KEX host key\00", align 1
@.str.416 = private unnamed_addr constant [19 x i8] c"KEX host signature\00", align 1
@.str.417 = private unnamed_addr constant [49 x i8] c"%s->sequence_number{SSH_MSG_KEXDH_REPLY}++ > %d\0A\00", align 1
@.str.418 = private unnamed_addr constant [8 x i8] c"serveur\00", align 1

; Function Attrs: nounwind uwtable
define internal ptr @ssh_kex_make_bignum(ptr noundef %0, i32 noundef %1) #0 {
  %3 = alloca ptr, align 8
  %4 = alloca ptr, align 8
  %5 = alloca i32, align 4
  %6 = alloca ptr, align 8
  store ptr %0, ptr %4, align 8
  store i32 %1, ptr %5, align 4
  %7 = load i32, ptr %5, align 4
  %8 = icmp eq i32 %7, 0
  br i1 %8, label %12, label %9

9:                                                ; preds = %2
  %10 = load i32, ptr %5, align 4
  %11 = icmp ugt i32 %10, 1025
  br i1 %11, label %12, label %13

12:                                               ; preds = %9, %2
  store ptr null, ptr %3, align 8
  br label %36

13:                                               ; preds = %9
  %14 = call ptr @wmem_file_scope()
  %15 = call noalias ptr @wmem_alloc0(ptr noundef %14, i64 noundef 16)
  store ptr %15, ptr %6, align 8
  %16 = call ptr @wmem_file_scope()
  %17 = load i32, ptr %5, align 4
  %18 = zext i32 %17 to i64
  %19 = call noalias ptr @wmem_alloc0(ptr noundef %16, i64 noundef %18)
  %20 = load ptr, ptr %6, align 8
  %21 = getelementptr inbounds %struct.ssh_bignum, ptr %20, i32 0, i32 0
  store ptr %19, ptr %21, align 8
  %22 = load ptr, ptr %4, align 8
  %23 = icmp ne ptr %22, null
  br i1 %23, label %24, label %31

24:                                               ; preds = %13
  %25 = load ptr, ptr %6, align 8
  %26 = getelementptr inbounds %struct.ssh_bignum, ptr %25, i32 0, i32 0
  %27 = load ptr, ptr %26, align 8
  %28 = load ptr, ptr %4, align 8
  %29 = load i32, ptr %5, align 4
  %30 = zext i32 %29 to i64
  call void @llvm.memcpy.p0.p0.i64(ptr align 1 %27, ptr align 1 %28, i64 %30, i1 false)
  br label %31

31:                                               ; preds = %24, %13
  %32 = load i32, ptr %5, align 4
  %33 = load ptr, ptr %6, align 8
  %34 = getelementptr inbounds %struct.ssh_bignum, ptr %33, i32 0, i32 1
  store i32 %32, ptr %34, align 8
  %35 = load ptr, ptr %6, align 8
  store ptr %35, ptr %3, align 8
  br label %36

36:                                               ; preds = %31, %12
  %37 = load ptr, ptr %3, align 8
  ret ptr %37
}

; Function Attrs: nounwind uwtable
define internal i32 @ssh_read_f(ptr noundef %0, i32 noundef %1, ptr noundef %2) #0 {
  %4 = alloca i32, align 4
  %5 = alloca ptr, align 8
  %6 = alloca i32, align 4
  %7 = alloca ptr, align 8
  %8 = alloca i32, align 4
  store ptr %0, ptr %5, align 8
  store i32 %1, ptr %6, align 4
  store ptr %2, ptr %7, align 8
  %9 = load ptr, ptr %5, align 8
  %10 = load i32, ptr %6, align 4
  %11 = call i32 @tvb_get_ntohl(ptr noundef %9, i32 noundef %10)
  store i32 %11, ptr %8, align 4
  %12 = load i32, ptr %8, align 4
  %13 = call ptr @ssh_kex_make_bignum(ptr noundef null, i32 noundef %12)
  %14 = load ptr, ptr %7, align 8
  %15 = getelementptr inbounds %struct.ssh_flow_data, ptr %14, i32 0, i32 7
  store ptr %13, ptr %15, align 8
  %16 = load ptr, ptr %7, align 8
  %17 = getelementptr inbounds %struct.ssh_flow_data, ptr %16, i32 0, i32 7
  %18 = load ptr, ptr %17, align 8
  %19 = icmp ne ptr %18, null
  br i1 %19, label %21, label %20

20:                                               ; preds = %3
  store i32 0, ptr %4, align 4
  br label %33

21:                                               ; preds = %3
  %22 = load ptr, ptr %5, align 8
  %23 = load ptr, ptr %7, align 8
  %24 = getelementptr inbounds %struct.ssh_flow_data, ptr %23, i32 0, i32 7
  %25 = load ptr, ptr %24, align 8
  %26 = getelementptr inbounds %struct.ssh_bignum, ptr %25, i32 0, i32 0
  %27 = load ptr, ptr %26, align 8
  %28 = load i32, ptr %6, align 4
  %29 = add i32 %28, 4
  %30 = load i32, ptr %8, align 4
  %31 = zext i32 %30 to i64
  %32 = call ptr @tvb_memcpy(ptr noundef %22, ptr noundef %27, i32 noundef %29, i64 noundef %31)
  store i32 1, ptr %4, align 4
  br label %33

33:                                               ; preds = %21, %20
  %34 = load i32, ptr %4, align 4
  ret i32 %34
}

; Function Attrs: nounwind uwtable
define internal i32 @ssh_tree_add_mpint(ptr noundef %0, i32 noundef %1, ptr noundef %2, i32 noundef %3) #0 {
  %5 = alloca ptr, align 8
  %6 = alloca i32, align 4
  %7 = alloca ptr, align 8
  %8 = alloca i32, align 4
  %9 = alloca i32, align 4
  store ptr %0, ptr %5, align 8
  store i32 %1, ptr %6, align 4
  store ptr %2, ptr %7, align 8
  store i32 %3, ptr %8, align 4
  %10 = load ptr, ptr %5, align 8
  %11 = load i32, ptr %6, align 4
  %12 = call i32 @tvb_get_ntohl(ptr noundef %10, i32 noundef %11)
  store i32 %12, ptr %9, align 4
  %13 = load ptr, ptr %7, align 8
  %14 = load i32, ptr @hf_ssh_mpint_length, align 4
  %15 = load ptr, ptr %5, align 8
  %16 = load i32, ptr %6, align 4
  %17 = load i32, ptr %9, align 4
  %18 = call ptr @proto_tree_add_uint(ptr noundef %13, i32 noundef %14, ptr noundef %15, i32 noundef %16, i32 noundef 4, i32 noundef %17)
  %19 = load i32, ptr %6, align 4
  %20 = add i32 %19, 4
  store i32 %20, ptr %6, align 4
  %21 = load ptr, ptr %7, align 8
  %22 = load i32, ptr %8, align 4
  %23 = load ptr, ptr %5, align 8
  %24 = load i32, ptr %6, align 4
  %25 = load i32, ptr %9, align 4
  %26 = call ptr @proto_tree_add_item(ptr noundef %21, i32 noundef %22, ptr noundef %23, i32 noundef %24, i32 noundef %25, i32 noundef 0)
  %27 = load i32, ptr %9, align 4
  %28 = add i32 4, %27
  ret i32 %28
}

; Function Attrs: nounwind uwtable
define internal i32 @ssh_read_e(ptr noundef %0, i32 noundef %1, ptr noundef %2) #0 {
  %4 = alloca i32, align 4
  %5 = alloca ptr, align 8
  %6 = alloca i32, align 4
  %7 = alloca ptr, align 8
  %8 = alloca i32, align 4
  store ptr %0, ptr %5, align 8
  store i32 %1, ptr %6, align 4
  store ptr %2, ptr %7, align 8
  %9 = load ptr, ptr %5, align 8
  %10 = load i32, ptr %6, align 4
  %11 = call i32 @tvb_get_ntohl(ptr noundef %9, i32 noundef %10)
  store i32 %11, ptr %8, align 4
  %12 = load i32, ptr %8, align 4
  %13 = call ptr @ssh_kex_make_bignum(ptr noundef null, i32 noundef %12)
  %14 = load ptr, ptr %7, align 8
  %15 = getelementptr inbounds %struct.ssh_flow_data, ptr %14, i32 0, i32 6
  store ptr %13, ptr %15, align 8
  %16 = load ptr, ptr %7, align 8
  %17 = getelementptr inbounds %struct.ssh_flow_data, ptr %16, i32 0, i32 6
  %18 = load ptr, ptr %17, align 8
  %19 = icmp ne ptr %18, null
  br i1 %19, label %21, label %20

20:                                               ; preds = %3
  store i32 0, ptr %4, align 4
  br label %33

21:                                               ; preds = %3
  %22 = load ptr, ptr %5, align 8
  %23 = load ptr, ptr %7, align 8
  %24 = getelementptr inbounds %struct.ssh_flow_data, ptr %23, i32 0, i32 6
  %25 = load ptr, ptr %24, align 8
  %26 = getelementptr inbounds %struct.ssh_bignum, ptr %25, i32 0, i32 0
  %27 = load ptr, ptr %26, align 8
  %28 = load i32, ptr %6, align 4
  %29 = add i32 %28, 4
  %30 = load i32, ptr %8, align 4
  %31 = zext i32 %30 to i64
  %32 = call ptr @tvb_memcpy(ptr noundef %22, ptr noundef %27, i32 noundef %29, i64 noundef %31)
  store i32 1, ptr %4, align 4
  br label %33

33:                                               ; preds = %21, %20
  %34 = load i32, ptr %4, align 4
  ret i32 %34
}

; Function Attrs: nounwind uwtable
define internal i32 @ssh_dissect_kex_dh(i8 noundef zeroext %0, ptr noundef %1, ptr noundef %2, i32 noundef %3, ptr noundef %4, ptr noundef %5, ptr noundef %6) #0 {
  %8 = alloca i8, align 1
  %9 = alloca ptr, align 8
  %10 = alloca ptr, align 8
  %11 = alloca i32, align 4
  %12 = alloca ptr, align 8
  %13 = alloca ptr, align 8
  %14 = alloca ptr, align 8
  store i8 %0, ptr %8, align 1
  store ptr %1, ptr %9, align 8
  store ptr %2, ptr %10, align 8
  store i32 %3, ptr %11, align 4
  store ptr %4, ptr %12, align 8
  store ptr %5, ptr %13, align 8
  store ptr %6, ptr %14, align 8
  %15 = load ptr, ptr %14, align 8
  store i32 0, ptr %15, align 4
  %16 = load ptr, ptr %12, align 8
  %17 = load i32, ptr @hf_ssh2_kex_dh_msg_code, align 4
  %18 = load ptr, ptr %9, align 8
  %19 = load i32, ptr %11, align 4
  %20 = call ptr @proto_tree_add_item(ptr noundef %16, i32 noundef %17, ptr noundef %18, i32 noundef %19, i32 noundef 1, i32 noundef 0)
  %21 = load i32, ptr %11, align 4
  %22 = add i32 %21, 1
  store i32 %22, ptr %11, align 4
  %23 = load ptr, ptr %10, align 8
  %24 = getelementptr inbounds %struct._packet_info, ptr %23, i32 0, i32 1
  %25 = load ptr, ptr %24, align 8
  %26 = load i8, ptr %8, align 1
  %27 = zext i8 %26 to i32
  %28 = call ptr @val_to_str(i32 noundef %27, ptr noundef @ssh2_kex_dh_msg_vals, ptr noundef @.str.411)
  call void @col_append_sep_str(ptr noundef %25, i32 noundef 25, ptr noundef null, ptr noundef %28)
  %29 = load i8, ptr %8, align 1
  %30 = zext i8 %29 to i32
  switch i32 %30, label %164 [
    i32 30, label %31
    i32 31, label %88
  ]

31:                                               ; preds = %7
  %32 = load ptr, ptr %9, align 8
  %33 = load i32, ptr %11, align 4
  %34 = load ptr, ptr %13, align 8
  %35 = call i32 @ssh_read_e(ptr noundef %32, i32 noundef %33, ptr noundef %34)
  %36 = icmp ne i32 %35, 0
  br i1 %36, label %46, label %37

37:                                               ; preds = %31
  %38 = load ptr, ptr %12, align 8
  %39 = load ptr, ptr %10, align 8
  %40 = load ptr, ptr %9, align 8
  %41 = load i32, ptr %11, align 4
  %42 = load ptr, ptr %9, align 8
  %43 = load i32, ptr %11, align 4
  %44 = call i32 @tvb_get_ntohl(ptr noundef %42, i32 noundef %43)
  %45 = call ptr (ptr, ptr, ptr, ptr, i32, i32, ptr, ...) @proto_tree_add_expert_format(ptr noundef %38, ptr noundef %39, ptr noundef @ei_ssh_invalid_keylen, ptr noundef %40, i32 noundef %41, i32 noundef 2, ptr noundef @.str.412, i32 noundef %44)
  br label %46

46:                                               ; preds = %37, %31
  %47 = load ptr, ptr %9, align 8
  %48 = load i32, ptr %11, align 4
  %49 = load ptr, ptr %12, align 8
  %50 = load i32, ptr @hf_ssh_dh_e, align 4
  %51 = call i32 @ssh_tree_add_mpint(ptr noundef %47, i32 noundef %48, ptr noundef %49, i32 noundef %50)
  %52 = load i32, ptr %11, align 4
  %53 = add i32 %52, %51
  store i32 %53, ptr %11, align 4
  %54 = load ptr, ptr %13, align 8
  %55 = getelementptr inbounds %struct.ssh_flow_data, ptr %54, i32 0, i32 3
  %56 = getelementptr [2 x %struct.ssh_peer_data], ptr %55, i64 0, i64 0
  %57 = getelementptr inbounds %struct.ssh_peer_data, ptr %56, i32 0, i32 27
  %58 = load i32, ptr %57, align 8
  %59 = icmp eq i32 %58, 0
  br i1 %59, label %60, label %81

60:                                               ; preds = %46
  %61 = load ptr, ptr %13, align 8
  %62 = getelementptr inbounds %struct.ssh_flow_data, ptr %61, i32 0, i32 3
  %63 = getelementptr [2 x %struct.ssh_peer_data], ptr %62, i64 0, i64 0
  %64 = getelementptr inbounds %struct.ssh_peer_data, ptr %63, i32 0, i32 19
  %65 = load i32, ptr %64, align 8
  %66 = add i32 %65, 1
  store i32 %66, ptr %64, align 8
  %67 = load ptr, ptr %13, align 8
  %68 = getelementptr inbounds %struct.ssh_flow_data, ptr %67, i32 0, i32 3
  %69 = getelementptr [2 x %struct.ssh_peer_data], ptr %68, i64 0, i64 0
  %70 = getelementptr inbounds %struct.ssh_peer_data, ptr %69, i32 0, i32 19
  %71 = load i32, ptr %70, align 8
  %72 = load ptr, ptr %13, align 8
  %73 = getelementptr inbounds %struct.ssh_flow_data, ptr %72, i32 0, i32 3
  %74 = getelementptr [2 x %struct.ssh_peer_data], ptr %73, i64 0, i64 0
  %75 = getelementptr inbounds %struct.ssh_peer_data, ptr %74, i32 0, i32 27
  store i32 %71, ptr %75, align 8
  %76 = load ptr, ptr %13, align 8
  %77 = getelementptr inbounds %struct.ssh_flow_data, ptr %76, i32 0, i32 3
  %78 = getelementptr [2 x %struct.ssh_peer_data], ptr %77, i64 0, i64 0
  %79 = getelementptr inbounds %struct.ssh_peer_data, ptr %78, i32 0, i32 19
  %80 = load i32, ptr %79, align 8
  call void (ptr, ...) @ssh_debug_printf(ptr noundef @.str.413, ptr noundef @.str.414, i32 noundef %80)
  br label %81

81:                                               ; preds = %60, %46
  %82 = load ptr, ptr %13, align 8
  %83 = getelementptr inbounds %struct.ssh_flow_data, ptr %82, i32 0, i32 3
  %84 = getelementptr [2 x %struct.ssh_peer_data], ptr %83, i64 0, i64 0
  %85 = getelementptr inbounds %struct.ssh_peer_data, ptr %84, i32 0, i32 27
  %86 = load i32, ptr %85, align 8
  %87 = load ptr, ptr %14, align 8
  store i32 %86, ptr %87, align 4
  br label %164

88:                                               ; preds = %7
  %89 = load ptr, ptr %9, align 8
  %90 = load i32, ptr %11, align 4
  %91 = load ptr, ptr %12, align 8
  %92 = load i32, ptr @ett_key_exchange_host_key, align 4
  %93 = load ptr, ptr %13, align 8
  %94 = call i32 @ssh_tree_add_hostkey(ptr noundef %89, i32 noundef %90, ptr noundef %91, ptr noundef @.str.415, i32 noundef %92, ptr noundef %93)
  %95 = load i32, ptr %11, align 4
  %96 = add i32 %95, %94
  store i32 %96, ptr %11, align 4
  %97 = load ptr, ptr %9, align 8
  %98 = load i32, ptr %11, align 4
  %99 = load ptr, ptr %13, align 8
  %100 = call i32 @ssh_read_f(ptr noundef %97, i32 noundef %98, ptr noundef %99)
  %101 = icmp ne i32 %100, 0
  br i1 %101, label %111, label %102

102:                                              ; preds = %88
  %103 = load ptr, ptr %12, align 8
  %104 = load ptr, ptr %10, align 8
  %105 = load ptr, ptr %9, align 8
  %106 = load i32, ptr %11, align 4
  %107 = load ptr, ptr %9, align 8
  %108 = load i32, ptr %11, align 4
  %109 = call i32 @tvb_get_ntohl(ptr noundef %107, i32 noundef %108)
  %110 = call ptr (ptr, ptr, ptr, ptr, i32, i32, ptr, ...) @proto_tree_add_expert_format(ptr noundef %103, ptr noundef %104, ptr noundef @ei_ssh_invalid_keylen, ptr noundef %105, i32 noundef %106, i32 noundef 2, ptr noundef @.str.412, i32 noundef %109)
  br label %111

111:                                              ; preds = %102, %88
  %112 = load ptr, ptr %13, align 8
  call void @ssh_choose_enc_mac(ptr noundef %112)
  %113 = load ptr, ptr %13, align 8
  call void @ssh_keylog_hash_write_secret(ptr noundef %113)
  %114 = load ptr, ptr %9, align 8
  %115 = load i32, ptr %11, align 4
  %116 = load ptr, ptr %12, align 8
  %117 = load i32, ptr @hf_ssh_dh_f, align 4
  %118 = call i32 @ssh_tree_add_mpint(ptr noundef %114, i32 noundef %115, ptr noundef %116, i32 noundef %117)
  %119 = load i32, ptr %11, align 4
  %120 = add i32 %119, %118
  store i32 %120, ptr %11, align 4
  %121 = load ptr, ptr %9, align 8
  %122 = load ptr, ptr %10, align 8
  %123 = load i32, ptr %11, align 4
  %124 = load ptr, ptr %12, align 8
  %125 = load i32, ptr @ett_key_exchange_host_sig, align 4
  %126 = load ptr, ptr %13, align 8
  %127 = call i32 @ssh_tree_add_hostsignature(ptr noundef %121, ptr noundef %122, i32 noundef %123, ptr noundef %124, ptr noundef @.str.416, i32 noundef %125, ptr noundef %126)
  %128 = load i32, ptr %11, align 4
  %129 = add i32 %128, %127
  store i32 %129, ptr %11, align 4
  %130 = load ptr, ptr %13, align 8
  %131 = getelementptr inbounds %struct.ssh_flow_data, ptr %130, i32 0, i32 3
  %132 = getelementptr [2 x %struct.ssh_peer_data], ptr %131, i64 0, i64 1
  %133 = getelementptr inbounds %struct.ssh_peer_data, ptr %132, i32 0, i32 28
  %134 = load i32, ptr %133, align 4
  %135 = icmp eq i32 %134, 0
  br i1 %135, label %136, label %157

136:                                              ; preds = %111
  %137 = load ptr, ptr %13, align 8
  %138 = getelementptr inbounds %struct.ssh_flow_data, ptr %137, i32 0, i32 3
  %139 = getelementptr [2 x %struct.ssh_peer_data], ptr %138, i64 0, i64 1
  %140 = getelementptr inbounds %struct.ssh_peer_data, ptr %139, i32 0, i32 19
  %141 = load i32, ptr %140, align 8
  %142 = add i32 %141, 1
  store i32 %142, ptr %140, align 8
  %143 = load ptr, ptr %13, align 8
  %144 = getelementptr inbounds %struct.ssh_flow_data, ptr %143, i32 0, i32 3
  %145 = getelementptr [2 x %struct.ssh_peer_data], ptr %144, i64 0, i64 1
  %146 = getelementptr inbounds %struct.ssh_peer_data, ptr %145, i32 0, i32 19
  %147 = load i32, ptr %146, align 8
  %148 = load ptr, ptr %13, align 8
  %149 = getelementptr inbounds %struct.ssh_flow_data, ptr %148, i32 0, i32 3
  %150 = getelementptr [2 x %struct.ssh_peer_data], ptr %149, i64 0, i64 1
  %151 = getelementptr inbounds %struct.ssh_peer_data, ptr %150, i32 0, i32 28
  store i32 %147, ptr %151, align 4
  %152 = load ptr, ptr %13, align 8
  %153 = getelementptr inbounds %struct.ssh_flow_data, ptr %152, i32 0, i32 3
  %154 = getelementptr [2 x %struct.ssh_peer_data], ptr %153, i64 0, i64 1
  %155 = getelementptr inbounds %struct.ssh_peer_data, ptr %154, i32 0, i32 19
  %156 = load i32, ptr %155, align 8
  call void (ptr, ...) @ssh_debug_printf(ptr noundef @.str.417, ptr noundef @.str.418, i32 noundef %156)
  br label %157

157:                                              ; preds = %136, %111
  %158 = load ptr, ptr %13, align 8
  %159 = getelementptr inbounds %struct.ssh_flow_data, ptr %158, i32 0, i32 3
  %160 = getelementptr [2 x %struct.ssh_peer_data], ptr %159, i64 0, i64 1
  %161 = getelementptr inbounds %struct.ssh_peer_data, ptr %160, i32 0, i32 28
  %162 = load i32, ptr %161, align 4
  %163 = load ptr, ptr %14, align 8
  store i32 %162, ptr %163, align 4
  br label %164

164:                                              ; preds = %157, %81, %7
  %165 = load i32, ptr %11, align 4
  ret i32 %165
}