; Function Attrs: nounwind uwtable
define internal noundef i32 @ssh_dissect_kex_dh(i8 noundef zeroext %0, ptr noundef %1, ptr noundef %2, i32 noundef %3, ptr noundef %4, ptr noundef %5, ptr noundef writeonly captures(none) initializes((0, 4)) %6) #0 {
  store i32 0, ptr %6, align 4
  %8 = load i32, ptr @hf_ssh2_kex_dh_msg_code, align 4
  %9 = tail call ptr @proto_tree_add_item(ptr noundef %4, i32 noundef %8, ptr noundef %1, i32 noundef %3, i32 noundef 1, i32 noundef 0) #21
  %10 = add i32 %3, 1
  %11 = getelementptr inbounds nuw i8, ptr %2, i64 8
  %12 = load ptr, ptr %11, align 8
  %13 = zext i8 %0 to i32
  %14 = tail call ptr @val_to_str(i32 noundef %13, ptr noundef nonnull @ssh2_kex_dh_msg_vals, ptr noundef nonnull @.str.411) #21
  tail call void @col_append_sep_str(ptr noundef %12, i32 noundef 25, ptr noundef null, ptr noundef %14) #21
  switch i8 %0, label %81 [
    i8 30, label %15
    i8 31, label %45
  ]

15:                                               ; preds = %7
  %16 = tail call i32 @tvb_get_ntohl(ptr noundef %1, i32 noundef %10) #21
  %17 = add i32 %16, -1026
  %or.cond.i.i = icmp ult i32 %17, -1025
  br i1 %or.cond.i.i, label %27, label %ssh_read_e.exit

ssh_read_e.exit:                                  ; preds = %15
  %18 = tail call ptr @wmem_file_scope() #21
  %19 = tail call noalias ptr @wmem_alloc0(ptr noundef %18, i64 noundef 16) #21
  %20 = tail call ptr @wmem_file_scope() #21
  %21 = zext nneg i32 %16 to i64
  %22 = tail call noalias ptr @wmem_alloc0(ptr noundef %20, i64 noundef %21) #21
  store ptr %22, ptr %19, align 8
  %23 = getelementptr inbounds nuw i8, ptr %19, i64 8
  store i32 %16, ptr %23, align 8
  %24 = getelementptr inbounds nuw i8, ptr %5, i64 616
  store ptr %19, ptr %24, align 8
  %25 = add i32 %3, 5
  %26 = tail call ptr @tvb_memcpy(ptr noundef %1, ptr noundef %22, i32 noundef %25, i64 noundef %21) #21
  br label %31

27:                                               ; preds = %15
  %28 = getelementptr inbounds nuw i8, ptr %5, i64 616
  store ptr null, ptr %28, align 8
  %29 = tail call i32 @tvb_get_ntohl(ptr noundef %1, i32 noundef %10) #21
  %30 = tail call ptr (ptr, ptr, ptr, ptr, i32, i32, ptr, ...) @proto_tree_add_expert_format(ptr noundef %4, ptr noundef nonnull %2, ptr noundef nonnull @ei_ssh_invalid_keylen, ptr noundef %1, i32 noundef %10, i32 noundef 2, ptr noundef nonnull @.str.412, i32 noundef %29) #21
  %.pre70 = add i32 %3, 5
  br label %31

31:                                               ; preds = %ssh_read_e.exit, %27
  %.pre-phi = phi i32 [ %25, %ssh_read_e.exit ], [ %.pre70, %27 ]
  %32 = load i32, ptr @hf_ssh_dh_e, align 4
  %33 = tail call i32 @tvb_get_ntohl(ptr noundef %1, i32 noundef %10) #21
  %34 = load i32, ptr @hf_ssh_mpint_length, align 4
  %35 = tail call ptr @proto_tree_add_uint(ptr noundef %4, i32 noundef %34, ptr noundef %1, i32 noundef %10, i32 noundef 4, i32 noundef %33) #21
  %36 = tail call ptr @proto_tree_add_item(ptr noundef %4, i32 noundef %32, ptr noundef %1, i32 noundef %.pre-phi, i32 noundef %33, i32 noundef 0) #21
  %37 = add i32 %.pre-phi, %33
  %38 = getelementptr inbounds nuw i8, ptr %5, i64 200
  %39 = load i32, ptr %38, align 8
  %40 = icmp eq i32 %39, 0
  br i1 %40, label %41, label %.sink.split

41:                                               ; preds = %31
  %42 = getelementptr inbounds nuw i8, ptr %5, i64 168
  %43 = load i32, ptr %42, align 8
  %44 = add i32 %43, 1
  store i32 %44, ptr %42, align 8
  store i32 %44, ptr %38, align 8
  tail call void (ptr, ...) @ssh_debug_printf(ptr noundef nonnull @.str.413, ptr noundef nonnull @.str.414, i32 noundef %44)
  %.pre69 = load i32, ptr %38, align 8
  br label %.sink.split

45:                                               ; preds = %7
  %46 = load i32, ptr @ett_key_exchange_host_key, align 4
  %47 = tail call fastcc i32 @ssh_tree_add_hostkey(ptr noundef %1, i32 noundef %10, ptr noundef %4, i32 noundef %46, ptr noundef %5)
  %48 = add i32 %47, %10
  %49 = tail call i32 @tvb_get_ntohl(ptr noundef %1, i32 noundef %48) #21
  %50 = add i32 %49, -1026
  %or.cond.i.i62 = icmp ult i32 %50, -1025
  br i1 %or.cond.i.i62, label %60, label %ssh_read_f.exit

ssh_read_f.exit:                                  ; preds = %45
  %51 = tail call ptr @wmem_file_scope() #21
  %52 = tail call noalias ptr @wmem_alloc0(ptr noundef %51, i64 noundef 16) #21
  %53 = tail call ptr @wmem_file_scope() #21
  %54 = zext nneg i32 %49 to i64
  %55 = tail call noalias ptr @wmem_alloc0(ptr noundef %53, i64 noundef %54) #21
  store ptr %55, ptr %52, align 8
  %56 = getelementptr inbounds nuw i8, ptr %52, i64 8
  store i32 %49, ptr %56, align 8
  %57 = getelementptr inbounds nuw i8, ptr %5, i64 624
  store ptr %52, ptr %57, align 8
  %58 = add i32 %48, 4
  %59 = tail call ptr @tvb_memcpy(ptr noundef %1, ptr noundef %55, i32 noundef %58, i64 noundef %54) #21
  br label %64

60:                                               ; preds = %45
  %61 = getelementptr inbounds nuw i8, ptr %5, i64 624
  store ptr null, ptr %61, align 8
  %62 = tail call i32 @tvb_get_ntohl(ptr noundef %1, i32 noundef %48) #21
  %63 = tail call ptr (ptr, ptr, ptr, ptr, i32, i32, ptr, ...) @proto_tree_add_expert_format(ptr noundef %4, ptr noundef nonnull %2, ptr noundef nonnull @ei_ssh_invalid_keylen, ptr noundef %1, i32 noundef %48, i32 noundef 2, ptr noundef nonnull @.str.412, i32 noundef %62) #21
  %.pre71 = add i32 %48, 4
  br label %64

64:                                               ; preds = %ssh_read_f.exit, %60
  %.pre-phi72 = phi i32 [ %58, %ssh_read_f.exit ], [ %.pre71, %60 ]
  tail call fastcc void @ssh_choose_enc_mac(ptr noundef nonnull %5)
  tail call fastcc void @ssh_keylog_hash_write_secret(ptr noundef nonnull %5)
  %65 = load i32, ptr @hf_ssh_dh_f, align 4
  %66 = tail call i32 @tvb_get_ntohl(ptr noundef %1, i32 noundef %48) #21
  %67 = load i32, ptr @hf_ssh_mpint_length, align 4
  %68 = tail call ptr @proto_tree_add_uint(ptr noundef %4, i32 noundef %67, ptr noundef %1, i32 noundef %48, i32 noundef 4, i32 noundef %66) #21
  %69 = tail call ptr @proto_tree_add_item(ptr noundef %4, i32 noundef %65, ptr noundef %1, i32 noundef %.pre-phi72, i32 noundef %66, i32 noundef 0) #21
  %70 = add i32 %.pre-phi72, %66
  %71 = load i32, ptr @ett_key_exchange_host_sig, align 4
  %72 = tail call fastcc i32 @ssh_tree_add_hostsignature(ptr noundef %1, ptr noundef nonnull %2, i32 noundef %70, ptr noundef %4, i32 noundef %71)
  %73 = add i32 %72, %70
  %74 = getelementptr i8, ptr %5, i64 492
  %75 = load i32, ptr %74, align 4
  %76 = icmp eq i32 %75, 0
  br i1 %76, label %77, label %.sink.split

77:                                               ; preds = %64
  %78 = getelementptr i8, ptr %5, i64 456
  %79 = load i32, ptr %78, align 8
  %80 = add i32 %79, 1
  store i32 %80, ptr %78, align 8
  store i32 %80, ptr %74, align 4
  tail call void (ptr, ...) @ssh_debug_printf(ptr noundef nonnull @.str.417, ptr noundef nonnull @.str.418, i32 noundef %80)
  %.pre = load i32, ptr %74, align 4
  br label %.sink.split

.sink.split:                                      ; preds = %64, %77, %31, %41
  %.sink = phi i32 [ %.pre69, %41 ], [ %39, %31 ], [ %.pre, %77 ], [ %75, %64 ]
  %.0.ph = phi i32 [ %37, %41 ], [ %37, %31 ], [ %73, %77 ], [ %73, %64 ]
  store i32 %.sink, ptr %6, align 4
  br label %81

81:                                               ; preds = %.sink.split, %7
  %.0 = phi i32 [ %10, %7 ], [ %.0.ph, %.sink.split ]
  ret i32 %.0
}